target datalayout = "e-m:e-p270:32:32-p271:32:32-p272:64:64-i64:64-i128:128-f80:128-n8:16:32:64-S128"
target triple = "x86_64-pc-linux-gnu"

%struct._xmlError = type { i32, i32, ptr, i32, ptr, i32, ptr, ptr, ptr, i32, i32, ptr, ptr }
%struct.__va_list_tag = type { i32, i32, ptr, ptr }
%struct._xmlParserCtxt = type { ptr, ptr, ptr, i32, i32, ptr, ptr, i32, i32, ptr, i32, i32, ptr, ptr, i32, i32, ptr, i32, %struct._xmlParserNodeInfoSeq, i32, i32, i32, i32, i32, i32, %struct._xmlValidCtxt, i32, i32, ptr, ptr, i32, i32, ptr, i64, i64, i32, i32, i32, ptr, ptr, ptr, ptr, i32, i32, ptr, i32, ptr, i32, i32, i32, i32, ptr, i32, i32, ptr, i32, i32, ptr, ptr, i32, i32, ptr, ptr, ptr, i32, i32, i32, ptr, ptr, ptr, ptr, ptr, i32, i32, i32, i32, ptr, i32, ptr, %struct._xmlError, i32, i64, i64, ptr, i32, i32, ptr, i32, i64 }
%struct._xmlParserNodeInfoSeq = type { i64, i64, ptr }
%struct._xmlValidCtxt = type { ptr, ptr, ptr, ptr, i32, i32, ptr, i32, ptr, i32, ptr, i32, i32, ptr, ptr, ptr }
%struct._xmlParserInput = type { ptr, ptr, ptr, ptr, ptr, ptr, i32, i32, i32, i64, ptr, ptr, ptr, i32, i32 }

; Function Attrs: nounwind uwtable
define internal void @php_libxml_internal_error_handler(i32 noundef %0, ptr noundef %1, ptr noundef %2, ptr noundef %3) #0 {
  %5 = alloca i32, align 4
  %6 = alloca ptr, align 8
  %7 = alloca ptr, align 8
  %8 = alloca ptr, align 8
  %9 = alloca i32, align 4
  %10 = alloca i32, align 4
  %11 = alloca ptr, align 8
  store i32 %0, ptr %5, align 4
  store ptr %1, ptr %6, align 8
  store ptr %2, ptr %7, align 8
  store ptr %3, ptr %8, align 8
  store i32 0, ptr %9, align 4
  store i32 0, ptr %10, align 4
  %12 = load ptr, ptr %6, align 8
  store ptr %12, ptr %11, align 8
  %13 = load i32, ptr %5, align 4
  %14 = icmp ne i32 %13, 0
  br i1 %14, label %15, label %34

15:                                               ; preds = %4
  %16 = load ptr, ptr %11, align 8
  %17 = icmp ne ptr %16, null
  br i1 %17, label %18, label %34

18:                                               ; preds = %15
  %19 = load ptr, ptr %11, align 8
  %20 = getelementptr inbounds %struct._xmlParserCtxt, ptr %19, i32 0, i32 9
  %21 = load ptr, ptr %20, align 8
  %22 = icmp ne ptr %21, null
  br i1 %22, label %23, label %34

23:                                               ; preds = %18
  %24 = load ptr, ptr %11, align 8
  %25 = getelementptr inbounds %struct._xmlParserCtxt, ptr %24, i32 0, i32 9
  %26 = load ptr, ptr %25, align 8
  %27 = getelementptr inbounds %struct._xmlParserInput, ptr %26, i32 0, i32 7
  %28 = load i32, ptr %27, align 4
  store i32 %28, ptr %9, align 4
  %29 = load ptr, ptr %11, align 8
  %30 = getelementptr inbounds %struct._xmlParserCtxt, ptr %29, i32 0, i32 9
  %31 = load ptr, ptr %30, align 8
  %32 = getelementptr inbounds %struct._xmlParserInput, ptr %31, i32 0, i32 8
  %33 = load i32, ptr %32, align 8
  store i32 %33, ptr %10, align 4
  br label %34

34:                                               ; preds = %23, %18, %15, %4
  %35 = load i32, ptr %5, align 4
  %36 = load ptr, ptr %6, align 8
  %37 = load ptr, ptr %7, align 8
  %38 = load ptr, ptr %8, align 8
  %39 = load i32, ptr %9, align 4
  %40 = load i32, ptr %10, align 4
  call void @php_libxml_internal_error_handler_ex(i32 noundef %35, ptr noundef %36, ptr noundef %37, ptr noundef %38, i32 noundef %39, i32 noundef %40)
  ret void
}

; Function Attrs: nounwind uwtable
define void @php_libxml_ctx_error(ptr noundef %0, ptr noundef %1, ...) #0 {
  %3 = alloca ptr, align 8
  %4 = alloca ptr, align 8
  %5 = alloca [1 x %struct.__va_list_tag], align 16
  store ptr %0, ptr %3, align 8
  store ptr %1, ptr %4, align 8
  %6 = getelementptr inbounds [1 x %struct.__va_list_tag], ptr %5, i64 0, i64 0
  call void @llvm.va_start(ptr %6)
  %7 = load ptr, ptr %3, align 8
  %8 = getelementptr inbounds [1 x %struct.__va_list_tag], ptr %5, i64 0, i64 0
  call void @php_libxml_internal_error_handler(i32 noundef 1, ptr noundef %7, ptr noundef %4, ptr noundef %8)
  %9 = getelementptr inbounds [1 x %struct.__va_list_tag], ptr %5, i64 0, i64 0
  call void @llvm.va_end(ptr %9)
  ret void
}