; Function Attrs: nounwind uwtable
define void @php_libxml_ctx_error(ptr noundef %0, ptr noundef %1, ...) local_unnamed_addr #0 {
  %3 = alloca [1 x %struct.__va_list_tag], align 16
  call void @llvm.va_start(ptr nonnull %3)
  %.not = icmp eq ptr %0, null
  br i1 %.not, label %php_libxml_internal_error_handler.exit, label %4

4:                                                ; preds = %2
  %5 = getelementptr inbounds i8, ptr %0, i64 56
  %6 = load ptr, ptr %5, align 8
  %.not.i = icmp eq ptr %6, null
  br i1 %.not.i, label %php_libxml_internal_error_handler.exit, label %7

7:                                                ; preds = %4
  %8 = getelementptr inbounds i8, ptr %6, i64 52
  %9 = load i32, ptr %8, align 4
  %10 = getelementptr inbounds i8, ptr %6, i64 56
  %11 = load i32, ptr %10, align 8
  br label %php_libxml_internal_error_handler.exit

php_libxml_internal_error_handler.exit:           ; preds = %2, %4, %7
  %.012.i = phi i32 [ %11, %7 ], [ 0, %4 ], [ 0, %2 ]
  %.0.i = phi i32 [ %9, %7 ], [ 0, %4 ], [ 0, %2 ]
  call fastcc void @php_libxml_internal_error_handler_ex(i32 noundef 1, ptr noundef %0, ptr %1, ptr noundef nonnull %3, i32 noundef %.0.i, i32 noundef %.012.i)
  call void @llvm.va_end(ptr nonnull %3)
  ret void
}